target datalayout = "e-m:e-p270:32:32-p271:32:32-p272:64:64-i64:64-i128:128-f80:128-n8:16:32:64-S128"
target triple = "x86_64-pc-linux-gnu"

%struct.rb_data_type_struct = type { ptr, %struct.anon, ptr, ptr, i64 }
%struct.anon = type { ptr, ptr, ptr, ptr, [1 x ptr] }
%struct.RTypedData = type { %struct.RBasic, ptr, i64, ptr }
%struct.RBasic = type { i64, i64 }
%struct.pkcs7_st = type { ptr, i64, i32, i32, ptr, %union.anon, %struct.PKCS7_CTX_st }
%union.anon = type { ptr }
%struct.PKCS7_CTX_st = type { ptr, ptr }
%struct.pkcs7_enveloped_st = type { ptr, ptr, ptr }
%struct.pkcs7_signedandenveloped_st = type { ptr, ptr, ptr, ptr, ptr, ptr, ptr }

@ossl_pkcs7_type = internal constant %struct.rb_data_type_struct { ptr @.str.53, %struct.anon { ptr null, ptr @ossl_pkcs7_free, ptr null, ptr null, [1 x ptr] zeroinitializer }, ptr null, ptr null, i64 33 }, align 8
@ePKCS7Error = internal global i64 0, align 8
@rb_eRuntimeError = external global i64, align 8
@.str.1 = private unnamed_addr constant [26 x i8] c"PKCS7 wasn't initialized.\00", align 1
@cPKCS7Recipient = internal global i64 0, align 8
@ossl_pkcs7_recip_info_type = internal constant %struct.rb_data_type_struct { ptr @.str.80, %struct.anon { ptr null, ptr @ossl_pkcs7_recip_info_free, ptr null, ptr null, [1 x ptr] zeroinitializer }, ptr null, ptr null, i64 33 }, align 8
@.str.77 = private unnamed_addr constant [28 x i8] c"PKCS7ri wasn't initialized.\00", align 1

; Function Attrs: nounwind sspstrong uwtable
define internal ptr @ossl_PKCS7_RECIP_INFO_dup(ptr noundef %0) #0 {
  %2 = alloca ptr, align 8
  store ptr %0, ptr %2, align 8, !tbaa !46
  %3 = load ptr, ptr %2, align 8, !tbaa !46
  %4 = call ptr @ASN1_dup(ptr noundef @i2d_PKCS7_RECIP_INFO, ptr noundef @d2i_PKCS7_RECIP_INFO, ptr noundef %3)
  ret ptr %4
}

; Function Attrs: nounwind sspstrong uwtable
define internal i64 @ossl_pkcs7ri_new(ptr noundef %0) #0 {
  %2 = alloca ptr, align 8
  %3 = alloca ptr, align 8
  %4 = alloca i64, align 8
  store ptr %0, ptr %2, align 8, !tbaa !46
  call void @llvm.lifetime.start.p0(i64 8, ptr %3) #16
  call void @llvm.lifetime.start.p0(i64 8, ptr %4) #16
  %5 = load i64, ptr @cPKCS7Recipient, align 8, !tbaa !11
  %6 = call i64 @rb_data_typed_object_wrap(i64 noundef %5, ptr noundef null, ptr noundef @ossl_pkcs7_recip_info_type)
  store i64 %6, ptr %4, align 8, !tbaa !11
  %7 = load ptr, ptr %2, align 8, !tbaa !46
  %8 = icmp ne ptr %7, null
  br i1 %8, label %9, label %12

9:                                                ; preds = %1
  %10 = load ptr, ptr %2, align 8, !tbaa !46
  %11 = call ptr @ossl_PKCS7_RECIP_INFO_dup(ptr noundef %10)
  br label %14

12:                                               ; preds = %1
  %13 = call ptr @PKCS7_RECIP_INFO_new()
  br label %14

14:                                               ; preds = %12, %9
  %15 = phi ptr [ %11, %9 ], [ %13, %12 ]
  store ptr %15, ptr %3, align 8, !tbaa !46
  %16 = load ptr, ptr %3, align 8, !tbaa !46
  %17 = icmp ne ptr %16, null
  br i1 %17, label %20, label %18

18:                                               ; preds = %14
  %19 = load i64, ptr @ePKCS7Error, align 8, !tbaa !11
  call void (i64, ptr, ...) @ossl_raise(i64 noundef %19, ptr noundef null) #17
  unreachable

20:                                               ; preds = %14
  br label %21

21:                                               ; preds = %20
  %22 = load ptr, ptr %3, align 8, !tbaa !46
  %23 = icmp ne ptr %22, null
  br i1 %23, label %26, label %24

24:                                               ; preds = %21
  %25 = load i64, ptr @rb_eRuntimeError, align 8, !tbaa !11
  call void (i64, ptr, ...) @ossl_raise(i64 noundef %25, ptr noundef @.str.77) #17
  unreachable

26:                                               ; preds = %21
  %27 = load ptr, ptr %3, align 8, !tbaa !46
  %28 = load i64, ptr %4, align 8, !tbaa !11
  %29 = inttoptr i64 %28 to ptr
  %30 = getelementptr inbounds nuw %struct.RTypedData, ptr %29, i32 0, i32 3
  store ptr %27, ptr %30, align 8, !tbaa !13
  br label %31

31:                                               ; preds = %26
  br label %32

32:                                               ; preds = %31
  %33 = load i64, ptr %4, align 8, !tbaa !11
  call void @llvm.lifetime.end.p0(i64 8, ptr %4) #16
  call void @llvm.lifetime.end.p0(i64 8, ptr %3) #16
  ret i64 %33
}

; Function Attrs: inlinehint nounwind sspstrong uwtable
define internal ptr @ossl_check_const_PKCS7_RECIP_INFO_sk_type(ptr noundef %0) #4 {
  %2 = alloca ptr, align 8
  store ptr %0, ptr %2, align 8, !tbaa !53
  %3 = load ptr, ptr %2, align 8, !tbaa !53
  ret ptr %3
}

; Function Attrs: nounwind sspstrong uwtable
define internal i64 @ossl_pkcs7_get_recipient(i64 noundef %0) #0 {
  %2 = alloca i64, align 8
  %3 = alloca i64, align 8
  %4 = alloca ptr, align 8
  %5 = alloca ptr, align 8
  %6 = alloca i32, align 4
  %7 = alloca i32, align 4
  %8 = alloca i64, align 8
  %9 = alloca i32, align 4
  %10 = alloca ptr, align 8
  store i64 %0, ptr %3, align 8, !tbaa !11
  call void @llvm.lifetime.start.p0(i64 8, ptr %4) #16
  call void @llvm.lifetime.start.p0(i64 8, ptr %5) #16
  call void @llvm.lifetime.start.p0(i64 4, ptr %6) #16
  call void @llvm.lifetime.start.p0(i64 4, ptr %7) #16
  call void @llvm.lifetime.start.p0(i64 8, ptr %8) #16
  br label %11

11:                                               ; preds = %1
  %12 = load i64, ptr %3, align 8, !tbaa !11
  %13 = call ptr @rb_check_typeddata(i64 noundef %12, ptr noundef @ossl_pkcs7_type)
  store ptr %13, ptr %4, align 8, !tbaa !6
  %14 = load ptr, ptr %4, align 8, !tbaa !6
  %15 = icmp ne ptr %14, null
  br i1 %15, label %18, label %16

16:                                               ; preds = %11
  %17 = load i64, ptr @rb_eRuntimeError, align 8, !tbaa !11
  call void (i64, ptr, ...) @ossl_raise(i64 noundef %17, ptr noundef @.str.1) #17
  unreachable

18:                                               ; preds = %11
  br label %19

19:                                               ; preds = %18
  br label %20

20:                                               ; preds = %19
  %21 = load ptr, ptr %4, align 8, !tbaa !6
  %22 = getelementptr inbounds nuw %struct.pkcs7_st, ptr %21, i32 0, i32 4
  %23 = load ptr, ptr %22, align 8, !tbaa !24
  %24 = call i32 @OBJ_obj2nid(ptr noundef %23)
  %25 = icmp eq i32 %24, 23
  br i1 %25, label %26, label %32

26:                                               ; preds = %20
  %27 = load ptr, ptr %4, align 8, !tbaa !6
  %28 = getelementptr inbounds nuw %struct.pkcs7_st, ptr %27, i32 0, i32 5
  %29 = load ptr, ptr %28, align 8, !tbaa !19
  %30 = getelementptr inbounds nuw %struct.pkcs7_enveloped_st, ptr %29, i32 0, i32 1
  %31 = load ptr, ptr %30, align 8, !tbaa !48
  store ptr %31, ptr %5, align 8, !tbaa !53
  br label %46

32:                                               ; preds = %20
  %33 = load ptr, ptr %4, align 8, !tbaa !6
  %34 = getelementptr inbounds nuw %struct.pkcs7_st, ptr %33, i32 0, i32 4
  %35 = load ptr, ptr %34, align 8, !tbaa !24
  %36 = call i32 @OBJ_obj2nid(ptr noundef %35)
  %37 = icmp eq i32 %36, 24
  br i1 %37, label %38, label %44

38:                                               ; preds = %32
  %39 = load ptr, ptr %4, align 8, !tbaa !6
  %40 = getelementptr inbounds nuw %struct.pkcs7_st, ptr %39, i32 0, i32 5
  %41 = load ptr, ptr %40, align 8, !tbaa !19
  %42 = getelementptr inbounds nuw %struct.pkcs7_signedandenveloped_st, ptr %41, i32 0, i32 6
  %43 = load ptr, ptr %42, align 8, !tbaa !54
  store ptr %43, ptr %5, align 8, !tbaa !53
  br label %45

44:                                               ; preds = %32
  store ptr null, ptr %5, align 8, !tbaa !53
  br label %45

45:                                               ; preds = %44, %38
  br label %46

46:                                               ; preds = %45, %26
  %47 = load ptr, ptr %5, align 8, !tbaa !53
  %48 = icmp ne ptr %47, null
  br i1 %48, label %51, label %49

49:                                               ; preds = %46
  %50 = call i64 @rb_ary_new()
  store i64 %50, ptr %2, align 8
  store i32 1, ptr %9, align 4
  br label %76

51:                                               ; preds = %46
  %52 = load ptr, ptr %5, align 8, !tbaa !53
  %53 = call ptr @ossl_check_const_PKCS7_RECIP_INFO_sk_type(ptr noundef %52)
  %54 = call i32 @OPENSSL_sk_num(ptr noundef %53)
  store i32 %54, ptr %6, align 4, !tbaa !20
  %55 = load i32, ptr %6, align 4, !tbaa !20
  %56 = sext i32 %55 to i64
  %57 = call i64 @rb_ary_new_capa(i64 noundef %56)
  store i64 %57, ptr %8, align 8, !tbaa !11
  store i32 0, ptr %7, align 4, !tbaa !20
  br label %58

58:                                               ; preds = %71, %51
  %59 = load i32, ptr %7, align 4, !tbaa !20
  %60 = load i32, ptr %6, align 4, !tbaa !20
  %61 = icmp slt i32 %59, %60
  br i1 %61, label %62, label %74

62:                                               ; preds = %58
  call void @llvm.lifetime.start.p0(i64 8, ptr %10) #16
  %63 = load ptr, ptr %5, align 8, !tbaa !53
  %64 = call ptr @ossl_check_const_PKCS7_RECIP_INFO_sk_type(ptr noundef %63)
  %65 = load i32, ptr %7, align 4, !tbaa !20
  %66 = call ptr @OPENSSL_sk_value(ptr noundef %64, i32 noundef %65)
  store ptr %66, ptr %10, align 8, !tbaa !46
  %67 = load i64, ptr %8, align 8, !tbaa !11
  %68 = load ptr, ptr %10, align 8, !tbaa !46
  %69 = call i64 @ossl_pkcs7ri_new(ptr noundef %68)
  %70 = call i64 @rb_ary_push(i64 noundef %67, i64 noundef %69)
  call void @llvm.lifetime.end.p0(i64 8, ptr %10) #16
  br label %71

71:                                               ; preds = %62
  %72 = load i32, ptr %7, align 4, !tbaa !20
  %73 = add nsw i32 %72, 1
  store i32 %73, ptr %7, align 4, !tbaa !20
  br label %58, !llvm.loop !58

74:                                               ; preds = %58
  %75 = load i64, ptr %8, align 8, !tbaa !11
  store i64 %75, ptr %2, align 8
  store i32 1, ptr %9, align 4
  br label %76

76:                                               ; preds = %74, %49
  call void @llvm.lifetime.end.p0(i64 8, ptr %8) #16
  call void @llvm.lifetime.end.p0(i64 4, ptr %7) #16
  call void @llvm.lifetime.end.p0(i64 4, ptr %6) #16
  call void @llvm.lifetime.end.p0(i64 8, ptr %5) #16
  call void @llvm.lifetime.end.p0(i64 8, ptr %4) #16
  %77 = load i64, ptr %2, align 8
  ret i64 %77
}