; Function Attrs: nounwind sspstrong uwtable
define internal i64 @ossl_pkcs7_get_recipient(i64 noundef %0) #0 {
  %2 = tail call ptr @rb_check_typeddata(i64 noundef %0, ptr noundef nonnull @ossl_pkcs7_type) #5
  %.not = icmp eq ptr %2, null
  br i1 %.not, label %3, label %5

3:                                                ; preds = %1
  %4 = load i64, ptr @rb_eRuntimeError, align 8, !tbaa !6
  tail call void (i64, ptr, ...) @ossl_raise(i64 noundef %4, ptr noundef nonnull @.str.1) #6
  unreachable

5:                                                ; preds = %1
  %6 = getelementptr inbounds nuw i8, ptr %2, i64 24
  %7 = load ptr, ptr %6, align 8, !tbaa !22
  %8 = tail call i32 @OBJ_obj2nid(ptr noundef %7) #5
  %9 = icmp eq i32 %8, 23
  br i1 %9, label %14, label %10

10:                                               ; preds = %5
  %11 = load ptr, ptr %6, align 8, !tbaa !22
  %12 = tail call i32 @OBJ_obj2nid(ptr noundef %11) #5
  %13 = icmp eq i32 %12, 24
  br i1 %13, label %14, label %.thread

14:                                               ; preds = %10, %5
  %.sink24 = phi i64 [ 8, %5 ], [ 48, %10 ]
  %15 = getelementptr inbounds nuw i8, ptr %2, i64 32
  %16 = load ptr, ptr %15, align 8, !tbaa !17
  %17 = getelementptr inbounds nuw i8, ptr %16, i64 %.sink24
  %.017 = load ptr, ptr %17, align 8, !tbaa !52
  %.not20 = icmp eq ptr %.017, null
  br i1 %.not20, label %.thread, label %19

.thread:                                          ; preds = %10, %14
  %18 = tail call i64 @rb_ary_new() #5
  br label %.loopexit

19:                                               ; preds = %14
  %20 = tail call i32 @OPENSSL_sk_num(ptr noundef nonnull %.017) #5
  %21 = sext i32 %20 to i64
  %22 = tail call i64 @rb_ary_new_capa(i64 noundef %21) #5
  %23 = icmp sgt i32 %20, 0
  br i1 %23, label %.lr.ph, label %.loopexit

.lr.ph:                                           ; preds = %19, %ossl_pkcs7ri_new.exit
  %.01823 = phi i32 [ %38, %ossl_pkcs7ri_new.exit ], [ 0, %19 ]
  %24 = tail call ptr @OPENSSL_sk_value(ptr noundef nonnull %.017, i32 noundef %.01823) #5
  %25 = load i64, ptr @cPKCS7Recipient, align 8, !tbaa !6
  %26 = tail call i64 @rb_data_typed_object_wrap(i64 noundef %25, ptr noundef null, ptr noundef nonnull @ossl_pkcs7_recip_info_type) #5
  %.not.i = icmp eq ptr %24, null
  br i1 %.not.i, label %29, label %27

27:                                               ; preds = %.lr.ph
  %28 = tail call ptr @ASN1_dup(ptr noundef nonnull @i2d_PKCS7_RECIP_INFO, ptr noundef nonnull @d2i_PKCS7_RECIP_INFO, ptr noundef nonnull %24) #5
  br label %31

29:                                               ; preds = %.lr.ph
  %30 = tail call ptr @PKCS7_RECIP_INFO_new() #5
  br label %31

31:                                               ; preds = %29, %27
  %32 = phi ptr [ %28, %27 ], [ %30, %29 ]
  %.not7.i = icmp eq ptr %32, null
  br i1 %.not7.i, label %33, label %ossl_pkcs7ri_new.exit

33:                                               ; preds = %31
  %34 = load i64, ptr @ePKCS7Error, align 8, !tbaa !6
  tail call void (i64, ptr, ...) @ossl_raise(i64 noundef %34, ptr noundef null) #6
  unreachable

ossl_pkcs7ri_new.exit:                            ; preds = %31
  %35 = inttoptr i64 %26 to ptr
  %36 = getelementptr inbounds nuw i8, ptr %35, i64 32
  store ptr %32, ptr %36, align 8, !tbaa !10
  %37 = tail call i64 @rb_ary_push(i64 noundef %22, i64 noundef %26) #5
  %38 = add nuw nsw i32 %.01823, 1
  %exitcond.not = icmp eq i32 %38, %20
  br i1 %exitcond.not, label %.loopexit, label %.lr.ph, !llvm.loop !54

.loopexit:                                        ; preds = %ossl_pkcs7ri_new.exit, %19, %.thread
  %.0 = phi i64 [ %18, %.thread ], [ %22, %19 ], [ %22, %ossl_pkcs7ri_new.exit ]
  ret i64 %.0
}